target datalayout = "e-m:e-p270:32:32-p271:32:32-p272:64:64-i64:64-i128:128-f80:128-n8:16:32:64-S128"
target triple = "x86_64-unknown-linux-gnu"

%"class.std::__cxx11::basic_string" = type { %"struct.std::__cxx11::basic_string<char>::_Alloc_hider", i64, %union.anon }
%"struct.std::__cxx11::basic_string<char>::_Alloc_hider" = type { ptr }
%union.anon = type { i64, [8 x i8] }
%"struct.std::atomic" = type { %"struct.std::__atomic_base" }
%"struct.std::__atomic_base" = type { ptr }
%"class.llvh::Timer" = type { %"class.llvh::TimeRecord", %"class.llvh::TimeRecord", %"class.std::__cxx11::basic_string", %"class.std::__cxx11::basic_string", i8, i8, ptr, ptr, ptr }
%"class.llvh::TimeRecord" = type { double, double, double, i64 }
%"class.llvh::sys::SmartScopedLock" = type { ptr }
%"class.llvh::TimerGroup" = type { %"class.std::__cxx11::basic_string", %"class.std::__cxx11::basic_string", ptr, %"class.std::vector", ptr, ptr }
%"class.std::vector" = type { %"struct.std::_Vector_base" }
%"struct.std::_Vector_base" = type { %"struct.std::_Vector_base<llvh::TimerGroup::PrintRecord, std::allocator<llvh::TimerGroup::PrintRecord>>::_Vector_impl" }
%"struct.std::_Vector_base<llvh::TimerGroup::PrintRecord, std::allocator<llvh::TimerGroup::PrintRecord>>::_Vector_impl" = type { %"struct.std::_Vector_base<llvh::TimerGroup::PrintRecord, std::allocator<llvh::TimerGroup::PrintRecord>>::_Vector_impl_data" }
%"struct.std::_Vector_base<llvh::TimerGroup::PrintRecord, std::allocator<llvh::TimerGroup::PrintRecord>>::_Vector_impl_data" = type { ptr, ptr, ptr }
%"class.llvh::ManagedStaticBase" = type { %"struct.std::atomic", ptr, ptr }
%"class.llvh::sys::SmartMutex" = type <{ %"class.llvh::sys::MutexImpl", i32, i8, [3 x i8] }>
%"class.llvh::sys::MutexImpl" = type { ptr }

@_ZL9TimerLock = internal global { %"struct.std::atomic", ptr, ptr } zeroinitializer, align 8

; Function Attrs: mustprogress nounwind uwtable
define linkonce_odr noundef i32 @_ZStanSt12memory_orderSt23__memory_order_modifier(i32 noundef %__m, i32 noundef %__mod) #1 comdat {
entry:
  %__m.addr = alloca i32, align 4
  %__mod.addr = alloca i32, align 4
  store i32 %__m, ptr %__m.addr, align 4
  store i32 %__mod, ptr %__mod.addr, align 4
  %0 = load i32, ptr %__m.addr, align 4
  %1 = load i32, ptr %__mod.addr, align 4
  %and = and i32 %0, %1
  ret i32 %and
}

; Function Attrs: mustprogress nounwind uwtable
define linkonce_odr hidden noundef zeroext i1 @_ZN4llvh3sys10SmartMutexILb1EE6unlockEv(ptr noundef nonnull align 8 dereferenceable(13) %this) #1 comdat align 2 {
entry:
  %retval = alloca i1, align 1
  %this.addr = alloca ptr, align 8
  store ptr %this, ptr %this.addr, align 8
  %this1 = load ptr, ptr %this.addr, align 8
  %call = call noundef zeroext i1 @_ZN4llvh21llvm_is_multithreadedEv()
  br i1 %call, label %if.then, label %if.else

if.then:                                          ; preds = %entry
  %impl = getelementptr inbounds %"class.llvh::sys::SmartMutex", ptr %this1, i32 0, i32 0
  %call2 = call noundef zeroext i1 @_ZN4llvh3sys9MutexImpl7releaseEv(ptr noundef nonnull align 8 dereferenceable(8) %impl)
  store i1 %call2, ptr %retval, align 1
  br label %return

if.else:                                          ; preds = %entry
  %acquired = getelementptr inbounds %"class.llvh::sys::SmartMutex", ptr %this1, i32 0, i32 1
  %0 = load i32, ptr %acquired, align 8
  %dec = add i32 %0, -1
  store i32 %dec, ptr %acquired, align 8
  store i1 true, ptr %retval, align 1
  br label %return

return:                                           ; preds = %if.else, %if.then
  %1 = load i1, ptr %retval, align 1
  ret i1 %1
}

; Function Attrs: mustprogress nounwind uwtable
define linkonce_odr hidden void @_ZN4llvh10TimeRecordC2Ev(ptr noundef nonnull align 8 dereferenceable(32) %this) unnamed_addr #1 comdat align 2 {
entry:
  %this.addr = alloca ptr, align 8
  store ptr %this, ptr %this.addr, align 8
  %this1 = load ptr, ptr %this.addr, align 8
  %WallTime = getelementptr inbounds %"class.llvh::TimeRecord", ptr %this1, i32 0, i32 0
  store double 0.000000e+00, ptr %WallTime, align 8
  %UserTime = getelementptr inbounds %"class.llvh::TimeRecord", ptr %this1, i32 0, i32 1
  store double 0.000000e+00, ptr %UserTime, align 8
  %SystemTime = getelementptr inbounds %"class.llvh::TimeRecord", ptr %this1, i32 0, i32 2
  store double 0.000000e+00, ptr %SystemTime, align 8
  %MemUsed = getelementptr inbounds %"class.llvh::TimeRecord", ptr %this1, i32 0, i32 3
  store i64 0, ptr %MemUsed, align 8
  ret void
}

; Function Attrs: mustprogress nounwind uwtable
define linkonce_odr hidden noundef zeroext i1 @_ZN4llvh3sys10SmartMutexILb1EE4lockEv(ptr noundef nonnull align 8 dereferenceable(13) %this) #1 comdat align 2 {
entry:
  %retval = alloca i1, align 1
  %this.addr = alloca ptr, align 8
  store ptr %this, ptr %this.addr, align 8
  %this1 = load ptr, ptr %this.addr, align 8
  %call = call noundef zeroext i1 @_ZN4llvh21llvm_is_multithreadedEv()
  br i1 %call, label %if.then, label %if.else

if.then:                                          ; preds = %entry
  %impl = getelementptr inbounds %"class.llvh::sys::SmartMutex", ptr %this1, i32 0, i32 0
  %call2 = call noundef zeroext i1 @_ZN4llvh3sys9MutexImpl7acquireEv(ptr noundef nonnull align 8 dereferenceable(8) %impl)
  store i1 %call2, ptr %retval, align 1
  br label %return

if.else:                                          ; preds = %entry
  %acquired = getelementptr inbounds %"class.llvh::sys::SmartMutex", ptr %this1, i32 0, i32 1
  %0 = load i32, ptr %acquired, align 8
  %inc = add i32 %0, 1
  store i32 %inc, ptr %acquired, align 8
  store i1 true, ptr %retval, align 1
  br label %return

return:                                           ; preds = %if.else, %if.then
  %1 = load i1, ptr %retval, align 1
  ret i1 %1
}

; Function Attrs: mustprogress nounwind uwtable
define linkonce_odr noundef ptr @_ZNKSt6atomicIPvE4loadESt12memory_order(ptr noundef nonnull align 8 dereferenceable(8) %this, i32 noundef %__m) #1 comdat align 2 {
entry:
  %this.addr.i = alloca ptr, align 8
  %__m.addr.i = alloca i32, align 4
  %__b.i = alloca i32, align 4
  %atomic-temp.i = alloca ptr, align 8
  %this.addr = alloca ptr, align 8
  %__m.addr = alloca i32, align 4
  store ptr %this, ptr %this.addr, align 8
  store i32 %__m, ptr %__m.addr, align 4
  %this1 = load ptr, ptr %this.addr, align 8
  %_M_b = getelementptr inbounds %"struct.std::atomic", ptr %this1, i32 0, i32 0
  %0 = load i32, ptr %__m.addr, align 4
  store ptr %_M_b, ptr %this.addr.i, align 8
  store i32 %0, ptr %__m.addr.i, align 4
  %this1.i = load ptr, ptr %this.addr.i, align 8
  %1 = load i32, ptr %__m.addr.i, align 4
  %call.i = call noundef i32 @_ZStanSt12memory_orderSt23__memory_order_modifier(i32 noundef %1, i32 noundef 65535)
  store i32 %call.i, ptr %__b.i, align 4
  %2 = load i32, ptr %__m.addr.i, align 4
  switch i32 %2, label %monotonic.i [
    i32 1, label %acquire.i
    i32 2, label %acquire.i
    i32 5, label %seqcst.i
  ]

monotonic.i:                                      ; preds = %entry
  %3 = load atomic i64, ptr %this1.i monotonic, align 8
  store i64 %3, ptr %atomic-temp.i, align 8
  br label %_ZNKSt13__atomic_baseIPvE4loadESt12memory_order.exit

acquire.i:                                        ; preds = %entry, %entry
  %4 = load atomic i64, ptr %this1.i acquire, align 8
  store i64 %4, ptr %atomic-temp.i, align 8
  br label %_ZNKSt13__atomic_baseIPvE4loadESt12memory_order.exit

seqcst.i:                                         ; preds = %entry
  %5 = load atomic i64, ptr %this1.i seq_cst, align 8
  store i64 %5, ptr %atomic-temp.i, align 8
  br label %_ZNKSt13__atomic_baseIPvE4loadESt12memory_order.exit

_ZNKSt13__atomic_baseIPvE4loadESt12memory_order.exit: ; preds = %seqcst.i, %acquire.i, %monotonic.i
  %6 = load ptr, ptr %atomic-temp.i, align 8
  ret ptr %6
}

; Function Attrs: mustprogress nounwind uwtable
define linkonce_odr hidden void @_ZN4llvh3sys15SmartScopedLockILb1EED2Ev(ptr noundef nonnull align 8 dereferenceable(8) %this) unnamed_addr #1 comdat align 2 {
entry:
  %this.addr = alloca ptr, align 8
  store ptr %this, ptr %this.addr, align 8
  %this1 = load ptr, ptr %this.addr, align 8
  %mtx = getelementptr inbounds %"class.llvh::sys::SmartScopedLock", ptr %this1, i32 0, i32 0
  %0 = load ptr, ptr %mtx, align 8
  %call = call noundef zeroext i1 @_ZN4llvh3sys10SmartMutexILb1EE6unlockEv(ptr noundef nonnull align 8 dereferenceable(13) %0)
  ret void
}

; Function Attrs: mustprogress nounwind uwtable
define hidden void @_ZN4llvh5Timer5clearEv(ptr noundef nonnull align 8 dereferenceable(160) %this) #1 align 2 {
entry:
  %this.addr = alloca ptr, align 8
  %ref.tmp = alloca %"class.llvh::TimeRecord", align 8
  store ptr %this, ptr %this.addr, align 8
  %this1 = load ptr, ptr %this.addr, align 8
  %Triggered = getelementptr inbounds %"class.llvh::Timer", ptr %this1, i32 0, i32 5
  store i8 0, ptr %Triggered, align 1
  %Running = getelementptr inbounds %"class.llvh::Timer", ptr %this1, i32 0, i32 4
  store i8 0, ptr %Running, align 8
  call void @_ZN4llvh10TimeRecordC2Ev(ptr noundef nonnull align 8 dereferenceable(32) %ref.tmp)
  %StartTime = getelementptr inbounds %"class.llvh::Timer", ptr %this1, i32 0, i32 1
  call void @llvm.memcpy.p0.p0.i64(ptr align 8 %StartTime, ptr align 8 %ref.tmp, i64 32, i1 false)
  %Time = getelementptr inbounds %"class.llvh::Timer", ptr %this1, i32 0, i32 0
  call void @llvm.memcpy.p0.p0.i64(ptr align 8 %Time, ptr align 8 %StartTime, i64 32, i1 false)
  ret void
}

; Function Attrs: mustprogress nounwind uwtable
define linkonce_odr hidden void @_ZN4llvh3sys15SmartScopedLockILb1EEC2ERNS0_10SmartMutexILb1EEE(ptr noundef nonnull align 8 dereferenceable(8) %this, ptr noundef nonnull align 8 dereferenceable(13) %m) unnamed_addr #1 comdat align 2 {
entry:
  %this.addr = alloca ptr, align 8
  %m.addr = alloca ptr, align 8
  store ptr %this, ptr %this.addr, align 8
  store ptr %m, ptr %m.addr, align 8
  %this1 = load ptr, ptr %this.addr, align 8
  %mtx = getelementptr inbounds %"class.llvh::sys::SmartScopedLock", ptr %this1, i32 0, i32 0
  %0 = load ptr, ptr %m.addr, align 8
  store ptr %0, ptr %mtx, align 8
  %mtx2 = getelementptr inbounds %"class.llvh::sys::SmartScopedLock", ptr %this1, i32 0, i32 0
  %1 = load ptr, ptr %mtx2, align 8
  %call = call noundef zeroext i1 @_ZN4llvh3sys10SmartMutexILb1EE4lockEv(ptr noundef nonnull align 8 dereferenceable(13) %1)
  ret void
}

; Function Attrs: mustprogress nounwind uwtable
define linkonce_odr hidden noundef nonnull align 8 dereferenceable(13) ptr @_ZN4llvh13ManagedStaticINS_3sys10SmartMutexILb1EEENS_14object_creatorIS3_EENS_14object_deleterIS3_EEEdeEv(ptr noundef nonnull align 8 dereferenceable(24) %this) #1 comdat align 2 {
entry:
  %this.addr = alloca ptr, align 8
  %Tmp = alloca ptr, align 8
  store ptr %this, ptr %this.addr, align 8
  %this1 = load ptr, ptr %this.addr, align 8
  %Ptr = getelementptr inbounds %"class.llvh::ManagedStaticBase", ptr %this1, i32 0, i32 0
  %call = call noundef ptr @_ZNKSt6atomicIPvE4loadESt12memory_order(ptr noundef nonnull align 8 dereferenceable(8) %Ptr, i32 noundef 2) #2
  store ptr %call, ptr %Tmp, align 8
  %0 = load ptr, ptr %Tmp, align 8
  %tobool = icmp ne ptr %0, null
  br i1 %tobool, label %if.end, label %if.then

if.then:                                          ; preds = %entry
  call void @_ZNK4llvh17ManagedStaticBase21RegisterManagedStaticEPFPvvEPFvS1_E(ptr noundef nonnull align 8 dereferenceable(24) %this1, ptr noundef @_ZN4llvh14object_creatorINS_3sys10SmartMutexILb1EEEE4callEv, ptr noundef @_ZN4llvh14object_deleterINS_3sys10SmartMutexILb1EEEE4callEPv)
  br label %if.end

if.end:                                           ; preds = %if.then, %entry
  %Ptr2 = getelementptr inbounds %"class.llvh::ManagedStaticBase", ptr %this1, i32 0, i32 0
  %call3 = call noundef ptr @_ZNKSt6atomicIPvE4loadESt12memory_order(ptr noundef nonnull align 8 dereferenceable(8) %Ptr2, i32 noundef 0) #2
  ret ptr %call3
}

; Function Attrs: mustprogress nounwind uwtable
define hidden void @_ZN4llvh10TimerGroup5clearEv(ptr noundef nonnull align 8 dereferenceable(112) %this) #1 align 2 {
entry:
  %this.addr = alloca ptr, align 8
  %L = alloca %"class.llvh::sys::SmartScopedLock", align 8
  %T = alloca ptr, align 8
  store ptr %this, ptr %this.addr, align 8
  %this1 = load ptr, ptr %this.addr, align 8
  %call = call noundef nonnull align 8 dereferenceable(13) ptr @_ZN4llvh13ManagedStaticINS_3sys10SmartMutexILb1EEENS_14object_creatorIS3_EENS_14object_deleterIS3_EEEdeEv(ptr noundef nonnull align 8 dereferenceable(24) @_ZL9TimerLock)
  call void @_ZN4llvh3sys15SmartScopedLockILb1EEC2ERNS0_10SmartMutexILb1EEE(ptr noundef nonnull align 8 dereferenceable(8) %L, ptr noundef nonnull align 8 dereferenceable(13) %call)
  %FirstTimer = getelementptr inbounds %"class.llvh::TimerGroup", ptr %this1, i32 0, i32 2
  %0 = load ptr, ptr %FirstTimer, align 8
  store ptr %0, ptr %T, align 8
  br label %for.cond

for.cond:                                         ; preds = %for.inc, %entry
  %1 = load ptr, ptr %T, align 8
  %tobool = icmp ne ptr %1, null
  br i1 %tobool, label %for.body, label %for.end

for.body:                                         ; preds = %for.cond
  %2 = load ptr, ptr %T, align 8
  call void @_ZN4llvh5Timer5clearEv(ptr noundef nonnull align 8 dereferenceable(160) %2)
  br label %for.inc

for.inc:                                          ; preds = %for.body
  %3 = load ptr, ptr %T, align 8
  %Next = getelementptr inbounds %"class.llvh::Timer", ptr %3, i32 0, i32 8
  %4 = load ptr, ptr %Next, align 8
  store ptr %4, ptr %T, align 8
  br label %for.cond, !llvm.loop !7

for.end:                                          ; preds = %for.cond
  call void @_ZN4llvh3sys15SmartScopedLockILb1EED2Ev(ptr noundef nonnull align 8 dereferenceable(8) %L) #2
  ret void
}